target datalayout = "e-m:e-p270:32:32-p271:32:32-p272:64:64-i64:64-i128:128-f80:128-n8:16:32:64-S128"
target triple = "x86_64-pc-linux-gnu"

@hf_edonkey_part_count = internal global i32 0, align 4
@hf_edonkey_file_status = internal global i32 0, align 4

; Function Attrs: null_pointer_is_valid sspstrong uwtable
define internal i32 @dissect_edonkey_file_status(ptr noundef %0, ptr noundef %1, i32 noundef %2, ptr noundef %3) #0 {
  %5 = alloca ptr, align 8
  %6 = alloca ptr, align 8
  %7 = alloca i32, align 4
  %8 = alloca ptr, align 8
  %9 = alloca i16, align 2
  %10 = alloca i16, align 2
  store ptr %0, ptr %5, align 8
  store ptr %1, ptr %6, align 8
  store i32 %2, ptr %7, align 4
  store ptr %3, ptr %8, align 8
  call void @llvm.lifetime.start.p0(i64 2, ptr %9) #6
  call void @llvm.lifetime.start.p0(i64 2, ptr %10) #6
  %11 = load ptr, ptr %5, align 8
  %12 = load i32, ptr %7, align 4
  %13 = call zeroext i16 @tvb_get_letohs(ptr noundef %11, i32 noundef %12)
  store i16 %13, ptr %9, align 2
  %14 = load i16, ptr %9, align 2
  %15 = zext i16 %14 to i32
  %16 = add i32 %15, 7
  %17 = sdiv i32 %16, 8
  %18 = trunc i32 %17 to i16
  store i16 %18, ptr %10, align 2
  %19 = load ptr, ptr %8, align 8
  %20 = load i32, ptr @hf_edonkey_part_count, align 4
  %21 = load ptr, ptr %5, align 8
  %22 = load i32, ptr %7, align 4
  %23 = load i16, ptr %9, align 2
  %24 = zext i16 %23 to i32
  %25 = call ptr @proto_tree_add_uint(ptr noundef %19, i32 noundef %20, ptr noundef %21, i32 noundef %22, i32 noundef 2, i32 noundef %24)
  %26 = load i16, ptr %9, align 2
  %27 = zext i16 %26 to i32
  %28 = icmp sgt i32 %27, 0
  br i1 %28, label %29, label %38

29:                                               ; preds = %4
  %30 = load ptr, ptr %8, align 8
  %31 = load i32, ptr @hf_edonkey_file_status, align 4
  %32 = load ptr, ptr %5, align 8
  %33 = load i32, ptr %7, align 4
  %34 = add i32 %33, 2
  %35 = load i16, ptr %10, align 2
  %36 = zext i16 %35 to i32
  %37 = call ptr @proto_tree_add_item(ptr noundef %30, i32 noundef %31, ptr noundef %32, i32 noundef %34, i32 noundef %36, i32 noundef 0)
  br label %38

38:                                               ; preds = %29, %4
  %39 = load i32, ptr %7, align 4
  %40 = add i32 %39, 2
  %41 = load i16, ptr %10, align 2
  %42 = zext i16 %41 to i32
  %43 = add i32 %40, %42
  call void @llvm.lifetime.end.p0(i64 2, ptr %10) #6
  call void @llvm.lifetime.end.p0(i64 2, ptr %9) #6
  ret i32 %43
}