; Function Attrs: null_pointer_is_valid sspstrong uwtable
define internal fastcc i32 @dissect_edonkey_file_status(ptr noundef %0, i32 noundef %1, ptr noundef %2) unnamed_addr #0 {
  %4 = tail call zeroext i16 @tvb_get_letohs(ptr noundef %0, i32 noundef %1)
  %5 = zext i16 %4 to i32
  %6 = add nuw nsw i32 %5, 7
  %7 = lshr i32 %6, 3
  %8 = load i32, ptr @hf_edonkey_part_count, align 4
  %9 = tail call ptr @proto_tree_add_uint(ptr noundef %2, i32 noundef %8, ptr noundef %0, i32 noundef %1, i32 noundef 2, i32 noundef %5)
  %.not = icmp eq i16 %4, 0
  br i1 %.not, label %._crit_edge, label %10

._crit_edge:                                      ; preds = %3
  %.pre = add i32 %1, 2
  br label %14

10:                                               ; preds = %3
  %11 = load i32, ptr @hf_edonkey_file_status, align 4
  %12 = add i32 %1, 2
  %13 = tail call ptr @proto_tree_add_item(ptr noundef %2, i32 noundef %11, ptr noundef %0, i32 noundef %12, i32 noundef %7, i32 noundef 0)
  br label %14

14:                                               ; preds = %._crit_edge, %10
  %.pre-phi = phi i32 [ %.pre, %._crit_edge ], [ %12, %10 ]
  %15 = add i32 %.pre-phi, %7
  ret i32 %15
}